10000000 <_start>:
10000000:	3c1d1000 	lui	sp,0x1000
10000004:	0c00043e 	jal	100010f8 <main>
10000008:	37bd3000 	ori	sp,sp,0x3000

100010f8 <main>:
100010f8:	27bdfef0 	addiu	sp,sp,-272
100010fc:	afbf0108 	sw	ra,264(sp)
10001100:	afb000f8 	sw	s0,248(sp)
10001104:	afb100fc 	sw	s1,252(sp)
10001108:	afb20100 	sw	s2,256(sp)
1000110c:	afa00020 	sw	zero,32(sp)
10001110:	3c021000 	lui	v0,0x1000
10001114:	24441964 	addiu	a0,v0,6500
10001118:	0c000614 	jal	10001850 <uwrite_int8s>
1000111c:	00000000 	nop
10001120:	3c021000 	lui	v0,0x1000
10001124:	24441970 	addiu	a0,v0,6512
10001128:	0c000614 	jal	10001850 <uwrite_int8s>
1000112c:	00000000 	nop
10001130:	3c021000 	lui	v0,0x1000
10001134:	27a40024 	addiu	a0,sp,36
10001138:	24050080 	li	a1,128
1000113c:	24461974 	addiu	a2,v0,6516
10001140:	0c0003c0 	jal	10000f00 <read_token>

1000180c <uwrite_int8>:
1000180c:	27bdffe8 	addiu	sp,sp,-24
10001810:	a3a40010 	sb	a0,16(sp)
10001814:	3c028000 	lui	v0,0x8000
10001818:	34420000 	ori	v0,v0,0x0
1000181c:	8c420000 	lw	v0,0(v0)
10001820:	00000000 	nop
10001824:	30420001 	andi	v0,v0,0x1
10001828:	1040fffa 	beqz	v0,10001814 <uwrite_int8+0x8>
1000182c:	00000000 	nop
10001830:	3c028000 	lui	v0,0x8000
10001834:	83a30010 	lb	v1,16(sp)
10001838:	00000000 	nop
1000183c:	34420008 	ori	v0,v0,0x8
10001840:	ac430000 	sw	v1,0(v0)
10001844:	27bd0018 	addiu	sp,sp,24
10001848:	03e00008 	jr	ra
1000184c:	00000000 	nop

10001850 <uwrite_int8s>:
10001850:	27bdffd0 	addiu	sp,sp,-48
10001854:	afbf002c 	sw	ra,44(sp)
10001858:	afa40020 	sw	a0,32(sp)
1000185c:	afa00024 	sw	zero,36(sp)
10001860:	8fa20020 	lw	v0,32(sp)
10001864:	00000000 	nop
10001868:	8fa30024 	lw	v1,36(sp)
1000186c:	00000000 	nop
10001870:	00431021 	addu	v0,v0,v1
10001874:	80420000 	lb	v0,0(v0)
10001878:	00000000 	nop
1000187c:	10400010 	beqz	v0,100018c0 <uwrite_int8s+0x70>
10001880:	00000000 	nop
10001884:	8fa20020 	lw	v0,32(sp)
10001888:	00000000 	nop
1000188c:	8fa30024 	lw	v1,36(sp)
10001890:	00000000 	nop
10001894:	00431021 	addu	v0,v0,v1
10001898:	80440000 	lb	a0,0(v0)
1000189c:	00000000 	nop
100018a0:	0c000603 	jal	1000180c <uwrite_int8>
100018a4:	00000000 	nop
100018a8:	8fa20024 	lw	v0,36(sp)
100018ac:	00000000 	nop
100018b0:	24420001 	addiu	v0,v0,1
100018b4:	afa20024 	sw	v0,36(sp)
100018b8:	08000618 	j	10001860 <uwrite_int8s+0x10>
100018bc:	00000000 	nop
100018c0:	8fbf002c 	lw	ra,44(sp)
100018c4:	00000000 	nop
100018c8:	27bd0030 	addiu	sp,sp,48
100018cc:	03e00008 	jr	ra
100018d0:	00000000 	nop
