
asmtest.elf:     file format elf32-bigmips


Disassembly of section .text:

10000000 <_start>:
10000000:	24170000 	li	s7,0
10000004:	3c168000 	lui	s6,0x8000
10000008:	3c158000 	lui	s5,0x8000
1000000c:	36b50004 	ori	s5,s5,0x4
10000010:	3c148000 	lui	s4,0x8000
10000014:	36940008 	ori	s4,s4,0x8
10000018:	3c138000 	lui	s3,0x8000
1000001c:	3673000c 	ori	s3,s3,0xc
10000020:	3c118000 	lui	s1,0x8000
10000024:	36310008 	ori	s1,s1,0x8
10000028:	3c121000 	lui	s2,0x1000
1000002c:	3652100f 	ori	s2,s2,0x100f
10000030:	24170000 	li	s7,0
10000034:	26f70001 	addiu	s7,s7,1
10000038:	3c101234 	lui	s0,0x1234
1000003c:	36105678 	ori	s0,s0,0x5678
10000040:	3c081234 	lui	t0,0x1234
10000044:	35085678 	ori	t0,t0,0x5678
10000048:	1510009b 	bne	t0,s0,100002b8 <Error>
1000004c:	00000000 	nop
10000050:	00000000 	nop
10000054:	26f70001 	addiu	s7,s7,1
10000058:	24100078 	li	s0,120
1000005c:	3c081234 	lui	t0,0x1234
10000060:	35085678 	ori	t0,t0,0x5678
10000064:	a6480000 	sh	t0,0(s2)
10000068:	00000000 	nop
1000006c:	92480000 	lbu	t0,0(s2)
10000070:	00000000 	nop
10000074:	15100090 	bne	t0,s0,100002b8 <Error>
10000078:	00000000 	nop
1000007c:	00000000 	nop
10000080:	26f70001 	addiu	s7,s7,1
10000084:	24105678 	li	s0,22136
10000088:	3c081234 	lui	t0,0x1234
1000008c:	35085678 	ori	t0,t0,0x5678
10000090:	a6480000 	sh	t0,0(s2)
10000094:	00000000 	nop
10000098:	96480000 	lhu	t0,0(s2)
1000009c:	00000000 	nop
100000a0:	15100085 	bne	t0,s0,100002b8 <Error>
100000a4:	00000000 	nop
100000a8:	00000000 	nop
100000ac:	26f70001 	addiu	s7,s7,1
100000b0:	24105678 	li	s0,22136
100000b4:	3c081234 	lui	t0,0x1234
100000b8:	35085678 	ori	t0,t0,0x5678
100000bc:	a6480000 	sh	t0,0(s2)
100000c0:	00000000 	nop
100000c4:	8e480000 	lw	t0,0(s2)
100000c8:	00000000 	nop
100000cc:	1510007a 	bne	t0,s0,100002b8 <Error>
100000d0:	00000000 	nop
100000d4:	00000000 	nop
100000d8:	26f70001 	addiu	s7,s7,1
100000dc:	24100001 	li	s0,1
100000e0:	24080002 	li	t0,2
100000e4:	2d08ffff 	sltiu	t0,t0,-1
100000e8:	15100073 	bne	t0,s0,100002b8 <Error>
100000ec:	00000000 	nop
100000f0:	00000000 	nop
100000f4:	26f70001 	addiu	s7,s7,1
100000f8:	3410edcb 	li	s0,0xedcb
100000fc:	24081234 	li	t0,4660
10000100:	3908ffff 	xori	t0,t0,0xffff
10000104:	1510006c 	bne	t0,s0,100002b8 <Error>
10000108:	00000000 	nop
1000010c:	00000000 	nop
10000110:	26f70001 	addiu	s7,s7,1
10000114:	3c100234 	lui	s0,0x234
10000118:	36105670 	ori	s0,s0,0x5670
1000011c:	3c081234 	lui	t0,0x1234
10000120:	35085678 	ori	t0,t0,0x5678
10000124:	00084100 	sll	t0,t0,0x4
10000128:	15100063 	bne	t0,s0,100002b8 <Error>
1000012c:	00000000 	nop
10000130:	00000000 	nop
10000134:	26f70001 	addiu	s7,s7,1
10000138:	3c100123 	lui	s0,0x123
1000013c:	36104567 	ori	s0,s0,0x4567
10000140:	3c081234 	lui	t0,0x1234
10000144:	35085678 	ori	t0,t0,0x5678
10000148:	24090004 	li	t1,4
1000014c:	01094006 	srlv	t0,t1,t0
10000150:	15100059 	bne	t0,s0,100002b8 <Error>
10000154:	00000000 	nop
10000158:	080000af 	j	100002bc <Done>
1000015c:	00000000 	nop
10000160:	24100020 	li	s0,32
10000164:	24080020 	li	t0,32
10000168:	15100053 	bne	t0,s0,100002b8 <Error>
1000016c:	26f70009 	addiu	s7,s7,9
10000170:	24100050 	li	s0,80
10000174:	24080000 	li	t0,0
10000178:	00000000 	nop
1000017c:	01104021 	addu	t0,t0,s0
10000180:	1510004d 	bne	t0,s0,100002b8 <Error>
10000184:	2417000a 	li	s7,10
10000188:	24100030 	li	s0,48
1000018c:	24090050 	li	t1,80
10000190:	24080020 	li	t0,32
10000194:	00000000 	nop
10000198:	01284023 	subu	t0,t1,t0
1000019c:	15100046 	bne	t0,s0,100002b8 <Error>
100001a0:	2417000b 	li	s7,11
100001a4:	24100001 	li	s0,1
100001a8:	24080001 	li	t0,1
100001ac:	00000000 	nop
100001b0:	24090001 	li	t1,1
100001b4:	00000000 	nop
100001b8:	01284024 	and	t0,t1,t0
100001bc:	1510003e 	bne	t0,s0,100002b8 <Error>
100001c0:	2417000c 	li	s7,12
100001c4:	24080000 	li	t0,0
100001c8:	00000000 	nop
100001cc:	24091010 	li	t1,4112
100001d0:	00000000 	nop
100001d4:	01284024 	and	t0,t1,t0
100001d8:	15000037 	bnez	t0,100002b8 <Error>
100001dc:	2417000d 	li	s7,13
100001e0:	24100001 	li	s0,1
100001e4:	24080000 	li	t0,0
100001e8:	00000000 	nop
100001ec:	24091111 	li	t1,4369
100001f0:	00000000 	nop
100001f4:	01094025 	or	t0,t0,t1
100001f8:	1510002f 	bne	t0,s0,100002b8 <Error>
100001fc:	2417000e 	li	s7,14
10000200:	24080000 	li	t0,0
10000204:	24090000 	li	t1,0
10000208:	00000000 	nop
1000020c:	01094025 	or	t0,t0,t1
10000210:	15000029 	bnez	t0,100002b8 <Error>
10000214:	2417000f 	li	s7,15
10000218:	24170010 	li	s7,16
1000021c:	24100001 	li	s0,1
10000220:	24080001 	li	t0,1
10000224:	24090000 	li	t1,0
10000228:	01284026 	xor	t0,t1,t0
1000022c:	15100022 	bne	t0,s0,100002b8 <Error>
10000230:	00000000 	nop
10000234:	24170011 	li	s7,17
10000238:	24100001 	li	s0,1
1000023c:	00004027 	nor	t0,zero,zero
10000240:	1608001d 	bne	s0,t0,100002b8 <Error>
10000244:	00000000 	nop
10000248:	24170012 	li	s7,18
1000024c:	00174027 	nor	t0,zero,s7
10000250:	14080019 	bne	zero,t0,100002b8 <Error>
10000254:	00000000 	nop
10000258:	24170013 	li	s7,19
1000025c:	24100001 	li	s0,1
10000260:	2008ff9c 	addi	t0,zero,-100
10000264:	24090001 	li	t1,1
10000268:	0109402a 	slt	t0,t0,t1
1000026c:	16080012 	bne	s0,t0,100002b8 <Error>
10000270:	00000000 	nop
10000274:	24100000 	li	s0,0
10000278:	24170014 	li	s7,20
1000027c:	2008ff9c 	addi	t0,zero,-100
10000280:	24090001 	li	t1,1
10000284:	0128402a 	slt	t0,t1,t0
10000288:	1608000b 	bne	s0,t0,100002b8 <Error>
1000028c:	00000000 	nop
10000290:	24100001 	li	s0,1
10000294:	24170015 	li	s7,21
10000298:	24080001 	li	t0,1
1000029c:	0008402b 	sltu	t0,zero,t0
100002a0:	16080005 	bne	s0,t0,100002b8 <Error>
100002a4:	00000000 	nop
100002a8:	26f70016 	addiu	s7,s7,22
100002ac:	0000402b 	sltu	t0,zero,zero
100002b0:	15000001 	bnez	t0,100002b8 <Error>
100002b4:	00000000 	nop

100002b8 <Error>:
100002b8:	a2370000 	sb	s7,0(s1)

100002bc <Done>:
100002bc:	a2200000 	sb	zero,0(s1)

Disassembly of section .reginfo:

00000000 <.reginfo>:
   0:	00ff0300 	0xff0300
	...
